; Listing generated by Microsoft (R) Optimizing Compiler Version 19.29.30148.0 

include listing.inc

INCLUDELIB OLDNAMES

PUBLIC	??_C@_0BC@KMNDFHKG@CMakeRenderBuffer@		; `string'
PUBLIC	??_C@_0DC@MJJLIAHJ@CMakeRenderBuffer?5failed?5becaus@ ; `string'
PUBLIC	??_C@_0DJ@BDIAHJIA@CMakeRenderBuffer?5failed?5becaus@ ; `string'
PUBLIC	??_C@_0BF@JFFEHIH@CDestroyRenderBuffer@		; `string'
PUBLIC	??_C@_0DF@FLKHKJKD@CDestroyRenderBuffer?5failed?5bec@ ; `string'
PUBLIC	??_C@_0DI@BOEJJBKH@CDestroyRenderBuffer?5failed?5bec@ ; `string'
PUBLIC	??_C@_0BJ@GONLCKF@CRenderBufferGetFragment@	; `string'
PUBLIC	??_C@_0DL@CBKOMBLI@CRenderBufferGetFragment?5failed@ ; `string'
PUBLIC	??_C@_0DN@HAGNIOIH@CRenderBufferGetFragment?5failed@ ; `string'
PUBLIC	??_C@_0BJ@JPDGECG@CRenderBufferSetFragment@	; `string'
PUBLIC	??_C@_0DL@JEKEAJIB@CRenderBufferSetFragment?5failed@ ; `string'
PUBLIC	??_C@_0DN@OLFGPMLF@CRenderBufferSetFragment?5failed@ ; `string'
PUBLIC	??_C@_0DJ@FCDJMGPO@CRenderBufferDepthTest?5failed?5b@ ; `string'
PUBLIC	??_C@_0DL@EICKIADA@CRenderBufferDepthTest?5failed?5b@ ; `string'
PUBLIC	??_C@_0BD@BAPELIIJ@CRenderBufferClear@		; `string'
PUBLIC	??_C@_0DG@HDDIECNC@CRenderBufferClear?5failed?5becau@ ; `string'
PUBLIC	??_C@_0EH@LCAPAIAB@CRenderBufferClear?5failed?5becau@ ; `string'
PUBLIC	??_C@_0BL@IKPCPHJO@CMakeRenderBufferFromBytes@	; `string'
PUBLIC	??_C@_0DO@HPHAAMED@CMakeRenderBufferFromBytes?5fail@ ; `string'
PUBLIC	??_C@_0EC@NHOPCMGF@CMakeRenderBufferFromBytes?5fail@ ; `string'
PUBLIC	??_C@_0DL@EJICGCJM@CMakeRenderBufferFromBytes?5fail@ ; `string'
PUBLIC	??_C@_0EB@FALABHOG@CMakeRenderBufferFromBytes?5fail@ ; `string'
;	COMDAT ??_C@_0EB@FALABHOG@CMakeRenderBufferFromBytes?5fail@
CONST	SEGMENT
??_C@_0EB@FALABHOG@CMakeRenderBufferFromBytes?5fail@ DB 'CMakeRenderBuffe'
	DB	'rFromBytes failed because byteFormat was invalid', 00H ; `string'
CONST	ENDS
;	COMDAT ??_C@_0DL@EJICGCJM@CMakeRenderBufferFromBytes?5fail@
CONST	SEGMENT
??_C@_0DL@EJICGCJM@CMakeRenderBufferFromBytes?5fail@ DB 'CMakeRenderBuffe'
	DB	'rFromBytes failed because inBytes was NULL', 00H ; `string'
CONST	ENDS
;	COMDAT ??_C@_0EC@NHOPCMGF@CMakeRenderBufferFromBytes?5fail@
CONST	SEGMENT
??_C@_0EC@NHOPCMGF@CMakeRenderBufferFromBytes?5fail@ DB 'CMakeRenderBuffe'
	DB	'rFromBytes failed because dimensions were invalid', 00H ; `string'
CONST	ENDS
;	COMDAT ??_C@_0DO@HPHAAMED@CMakeRenderBufferFromBytes?5fail@
CONST	SEGMENT
??_C@_0DO@HPHAAMED@CMakeRenderBufferFromBytes?5fail@ DB 'CMakeRenderBuffe'
	DB	'rFromBytes failed because pHandle was invalid', 00H ; `string'
CONST	ENDS
;	COMDAT ??_C@_0BL@IKPCPHJO@CMakeRenderBufferFromBytes@
CONST	SEGMENT
??_C@_0BL@IKPCPHJO@CMakeRenderBufferFromBytes@ DB 'CMakeRenderBufferFromB'
	DB	'ytes', 00H					; `string'
CONST	ENDS
;	COMDAT ??_C@_0EH@LCAPAIAB@CRenderBufferClear?5failed?5becau@
CONST	SEGMENT
??_C@_0EH@LCAPAIAB@CRenderBufferClear?5failed?5becau@ DB 'CRenderBufferCl'
	DB	'ear failed because both color and depth flag were false', 00H ; `string'
CONST	ENDS
;	COMDAT ??_C@_0DG@HDDIECNC@CRenderBufferClear?5failed?5becau@
CONST	SEGMENT
??_C@_0DG@HDDIECNC@CRenderBufferClear?5failed?5becau@ DB 'CRenderBufferCl'
	DB	'ear failed because pBuffer was invalid', 00H ; `string'
CONST	ENDS
;	COMDAT ??_C@_0BD@BAPELIIJ@CRenderBufferClear@
CONST	SEGMENT
??_C@_0BD@BAPELIIJ@CRenderBufferClear@ DB 'CRenderBufferClear', 00H ; `string'
CONST	ENDS
;	COMDAT ??_C@_0DL@EICKIADA@CRenderBufferDepthTest?5failed?5b@
CONST	SEGMENT
??_C@_0DL@EICKIADA@CRenderBufferDepthTest?5failed?5b@ DB 'CRenderBufferDe'
	DB	'pthTest failed because position was invalid', 00H ; `string'
CONST	ENDS
;	COMDAT ??_C@_0DJ@FCDJMGPO@CRenderBufferDepthTest?5failed?5b@
CONST	SEGMENT
??_C@_0DJ@FCDJMGPO@CRenderBufferDepthTest?5failed?5b@ DB 'CRenderBufferDe'
	DB	'pthTest failed because handle was invalid', 00H ; `string'
CONST	ENDS
;	COMDAT ??_C@_0DN@OLFGPMLF@CRenderBufferSetFragment?5failed@
CONST	SEGMENT
??_C@_0DN@OLFGPMLF@CRenderBufferSetFragment?5failed@ DB 'CRenderBufferSet'
	DB	'Fragment failed because position was invalid', 00H ; `string'
CONST	ENDS
;	COMDAT ??_C@_0DL@JEKEAJIB@CRenderBufferSetFragment?5failed@
CONST	SEGMENT
??_C@_0DL@JEKEAJIB@CRenderBufferSetFragment?5failed@ DB 'CRenderBufferSet'
	DB	'Fragment failed because handle was invalid', 00H ; `string'
CONST	ENDS
;	COMDAT ??_C@_0BJ@JPDGECG@CRenderBufferSetFragment@
CONST	SEGMENT
??_C@_0BJ@JPDGECG@CRenderBufferSetFragment@ DB 'CRenderBufferSetFragment', 00H ; `string'
CONST	ENDS
;	COMDAT ??_C@_0DN@HAGNIOIH@CRenderBufferGetFragment?5failed@
CONST	SEGMENT
??_C@_0DN@HAGNIOIH@CRenderBufferGetFragment?5failed@ DB 'CRenderBufferGet'
	DB	'Fragment failed because position was invalid', 00H ; `string'
CONST	ENDS
;	COMDAT ??_C@_0DL@CBKOMBLI@CRenderBufferGetFragment?5failed@
CONST	SEGMENT
??_C@_0DL@CBKOMBLI@CRenderBufferGetFragment?5failed@ DB 'CRenderBufferGet'
	DB	'Fragment failed because handle was invalid', 00H ; `string'
CONST	ENDS
;	COMDAT ??_C@_0BJ@GONLCKF@CRenderBufferGetFragment@
CONST	SEGMENT
??_C@_0BJ@GONLCKF@CRenderBufferGetFragment@ DB 'CRenderBufferGetFragment', 00H ; `string'
CONST	ENDS
;	COMDAT ??_C@_0DI@BOEJJBKH@CDestroyRenderBuffer?5failed?5bec@
CONST	SEGMENT
??_C@_0DI@BOEJJBKH@CDestroyRenderBuffer?5failed?5bec@ DB 'CDestroyRenderB'
	DB	'uffer failed because pHandle was invalid', 00H ; `string'
CONST	ENDS
;	COMDAT ??_C@_0DF@FLKHKJKD@CDestroyRenderBuffer?5failed?5bec@
CONST	SEGMENT
??_C@_0DF@FLKHKJKD@CDestroyRenderBuffer?5failed?5bec@ DB 'CDestroyRenderB'
	DB	'uffer failed because pHandle was NULL', 00H	; `string'
CONST	ENDS
;	COMDAT ??_C@_0BF@JFFEHIH@CDestroyRenderBuffer@
CONST	SEGMENT
??_C@_0BF@JFFEHIH@CDestroyRenderBuffer@ DB 'CDestroyRenderBuffer', 00H ; `string'
CONST	ENDS
;	COMDAT ??_C@_0DJ@BDIAHJIA@CMakeRenderBuffer?5failed?5becaus@
CONST	SEGMENT
??_C@_0DJ@BDIAHJIA@CMakeRenderBuffer?5failed?5becaus@ DB 'CMakeRenderBuff'
	DB	'er failed because dimensions were invalid', 00H ; `string'
CONST	ENDS
;	COMDAT ??_C@_0DC@MJJLIAHJ@CMakeRenderBuffer?5failed?5becaus@
CONST	SEGMENT
??_C@_0DC@MJJLIAHJ@CMakeRenderBuffer?5failed?5becaus@ DB 'CMakeRenderBuff'
	DB	'er failed because pHandle was NULL', 00H	; `string'
CONST	ENDS
;	COMDAT ??_C@_0BC@KMNDFHKG@CMakeRenderBuffer@
CONST	SEGMENT
??_C@_0BC@KMNDFHKG@CMakeRenderBuffer@ DB 'CMakeRenderBuffer', 00H ; `string'
PUBLIC	CMakeRenderBufferFromBytes
PUBLIC	CRenderBufferClear
PUBLIC	CRenderBufferDepthTest
PUBLIC	CRenderBufferSetFragment
PUBLIC	CRenderBufferGetFragment
PUBLIC	CDestroyRenderBuffer
PUBLIC	CMakeRenderBuffer
PUBLIC	CRenderBufferUnsafeSetFragment
PUBLIC	CRenderBufferUnsafeGetFragment
PUBLIC	CRenderBufferUnsafeDepthTest
;	COMDAT pdata
pdata	SEGMENT
$pdata$CMakeRenderBufferFromBytes DD imagerel $LN67@CMakeRende
	DD	imagerel $LN67@CMakeRende+344
	DD	imagerel $unwind$CMakeRenderBufferFromBytes
pdata	ENDS
;	COMDAT pdata
pdata	SEGMENT
$pdata$0$CMakeRenderBufferFromBytes DD imagerel $LN67@CMakeRende+344
	DD	imagerel $LN67@CMakeRende+476
	DD	imagerel $chain$0$CMakeRenderBufferFromBytes
pdata	ENDS
;	COMDAT pdata
pdata	SEGMENT
$pdata$2$CMakeRenderBufferFromBytes DD imagerel $LN67@CMakeRende+476
	DD	imagerel $LN67@CMakeRende+479
	DD	imagerel $chain$2$CMakeRenderBufferFromBytes
pdata	ENDS
;	COMDAT pdata
pdata	SEGMENT
$pdata$3$CMakeRenderBufferFromBytes DD imagerel $LN67@CMakeRende+479
	DD	imagerel $LN67@CMakeRende+509
	DD	imagerel $chain$3$CMakeRenderBufferFromBytes
pdata	ENDS
;	COMDAT pdata
pdata	SEGMENT
$pdata$5$CMakeRenderBufferFromBytes DD imagerel $LN67@CMakeRende+509
	DD	imagerel $LN67@CMakeRende+987
	DD	imagerel $chain$5$CMakeRenderBufferFromBytes
pdata	ENDS
;	COMDAT pdata
pdata	SEGMENT
$pdata$6$CMakeRenderBufferFromBytes DD imagerel $LN67@CMakeRende+987
	DD	imagerel $LN67@CMakeRende+1008
	DD	imagerel $chain$6$CMakeRenderBufferFromBytes
pdata	ENDS
;	COMDAT pdata
pdata	SEGMENT
$pdata$7$CMakeRenderBufferFromBytes DD imagerel $LN67@CMakeRende+1008
	DD	imagerel $LN67@CMakeRende+1080
	DD	imagerel $chain$7$CMakeRenderBufferFromBytes
pdata	ENDS
;	COMDAT pdata
pdata	SEGMENT
$pdata$8$CMakeRenderBufferFromBytes DD imagerel $LN67@CMakeRende+1080
	DD	imagerel $LN67@CMakeRende+1182
	DD	imagerel $chain$8$CMakeRenderBufferFromBytes
pdata	ENDS
;	COMDAT pdata
pdata	SEGMENT
$pdata$CRenderBufferClear DD imagerel $LN29@CRenderBuf
	DD	imagerel $LN29@CRenderBuf+456
	DD	imagerel $unwind$CRenderBufferClear
pdata	ENDS
;	COMDAT pdata
pdata	SEGMENT
$pdata$CRenderBufferDepthTest DD imagerel $LN35@CRenderBuf
	DD	imagerel $LN35@CRenderBuf+322
	DD	imagerel $unwind$CRenderBufferDepthTest
pdata	ENDS
;	COMDAT pdata
pdata	SEGMENT
$pdata$CRenderBufferSetFragment DD imagerel $LN48@CRenderBuf
	DD	imagerel $LN48@CRenderBuf+437
	DD	imagerel $unwind$CRenderBufferSetFragment
pdata	ENDS
;	COMDAT pdata
pdata	SEGMENT
$pdata$CRenderBufferGetFragment DD imagerel $LN41@CRenderBuf
	DD	imagerel $LN41@CRenderBuf+429
	DD	imagerel $unwind$CRenderBufferGetFragment
pdata	ENDS
;	COMDAT pdata
pdata	SEGMENT
$pdata$CDestroyRenderBuffer DD imagerel $LN26@CDestroyRe
	DD	imagerel $LN26@CDestroyRe+445
	DD	imagerel $unwind$CDestroyRenderBuffer
pdata	ENDS
;	COMDAT pdata
pdata	SEGMENT
$pdata$CMakeRenderBuffer DD imagerel $LN30@CMakeRende
	DD	imagerel $LN30@CMakeRende+154
	DD	imagerel $unwind$CMakeRenderBuffer
pdata	ENDS
;	COMDAT pdata
pdata	SEGMENT
$pdata$0$CMakeRenderBuffer DD imagerel $LN30@CMakeRende+154
	DD	imagerel $LN30@CMakeRende+252
	DD	imagerel $chain$0$CMakeRenderBuffer
pdata	ENDS
;	COMDAT pdata
pdata	SEGMENT
$pdata$1$CMakeRenderBuffer DD imagerel $LN30@CMakeRende+252
	DD	imagerel $LN30@CMakeRende+434
	DD	imagerel $chain$1$CMakeRenderBuffer
pdata	ENDS
;	COMDAT pdata
pdata	SEGMENT
$pdata$CRenderBufferUnsafeGetFragment DD imagerel $LN8@CRenderBuf
	DD	imagerel $LN8@CRenderBuf+77
	DD	imagerel $unwind$CRenderBufferUnsafeGetFragment
;	COMDAT xdata
xdata	SEGMENT
$unwind$CRenderBufferUnsafeGetFragment DQ 00001340500020501r ; 1.67326e-309
xdata	ENDS
;	COMDAT xdata
xdata	SEGMENT
$chain$1$CMakeRenderBuffer DD 021H
	DD	imagerel $LN30@CMakeRende
	DD	imagerel $LN30@CMakeRende+154
	DD	imagerel $unwind$CMakeRenderBuffer
xdata	ENDS
;	COMDAT xdata
xdata	SEGMENT
$chain$0$CMakeRenderBuffer DQ 00006340500020521r ; 8.62661e-309
	DD	imagerel $LN30@CMakeRende
	DD	imagerel $LN30@CMakeRende+154
	DD	imagerel $unwind$CMakeRenderBuffer
xdata	ENDS
;	COMDAT xdata
xdata	SEGMENT
$unwind$CMakeRenderBuffer DQ 00009741500081501r	; 1.31466e-308
	DQ	00007541500086415r		; 1.01915e-308
	DD	0e0113215H
xdata	ENDS
;	COMDAT xdata
xdata	SEGMENT
$unwind$CDestroyRenderBuffer DQ 00006344500064501r ; 8.62797e-309
	DQ	07006320a0007640ar		; 4.30736e+231
xdata	ENDS
;	COMDAT xdata
xdata	SEGMENT
$unwind$CRenderBufferGetFragment DQ 00009741a000a1a01r ; 1.31467e-308
	DQ	00007541a0008641ar		; 1.01916e-308
	DQ	0e016321a0006341ar		; -7.4399e+154
xdata	ENDS
;	COMDAT xdata
xdata	SEGMENT
$unwind$CRenderBufferSetFragment DQ 000087456000a5601r ; 1.17573e-308
	DQ	000093413000a5413r		; 1.27989e-308
	DQ	0600be00df00f3213r		; 4.67182e+154
xdata	ENDS
;	COMDAT xdata
xdata	SEGMENT
$unwind$CRenderBufferDepthTest DQ 00002681a000a1a01r ; 3.34685e-309
	DQ	000095414000a6414r		; 1.29728e-308
	DQ	07010521400083414r		; 6.33451e+231
xdata	ENDS
;	COMDAT xdata
xdata	SEGMENT
$unwind$CRenderBufferClear DQ 00008641400081401r ; 1.1669e-308
	DQ	00006341400075414r		; 8.62693e-309
	DD	070103214H
xdata	ENDS
;	COMDAT xdata
xdata	SEGMENT
$chain$8$CMakeRenderBufferFromBytes DD 021H
	DD	imagerel $LN67@CMakeRende
	DD	imagerel $LN67@CMakeRende+344
	DD	imagerel $unwind$CMakeRenderBufferFromBytes
xdata	ENDS
;	COMDAT xdata
xdata	SEGMENT
$chain$7$CMakeRenderBufferFromBytes DD 021H
	DD	imagerel $LN67@CMakeRende+476
	DD	imagerel $LN67@CMakeRende+479
	DD	imagerel $chain$2$CMakeRenderBufferFromBytes
xdata	ENDS
;	COMDAT xdata
xdata	SEGMENT
$chain$6$CMakeRenderBufferFromBytes DD 021H
	DD	imagerel $LN67@CMakeRende+479
	DD	imagerel $LN67@CMakeRende+509
	DD	imagerel $chain$3$CMakeRenderBufferFromBytes
xdata	ENDS
;	COMDAT xdata
xdata	SEGMENT
$chain$5$CMakeRenderBufferFromBytes DQ 00004680e00040e21r ; 6.12794e-309
	DD	0126408H
	DD	imagerel $LN67@CMakeRende+479
	DD	imagerel $LN67@CMakeRende+509
	DD	imagerel $chain$3$CMakeRenderBufferFromBytes
xdata	ENDS
;	COMDAT xdata
xdata	SEGMENT
$chain$3$CMakeRenderBufferFromBytes DQ 00011540800020821r ; 2.40979e-308
	DD	imagerel $LN67@CMakeRende+476
	DD	imagerel $LN67@CMakeRende+479
	DD	imagerel $chain$2$CMakeRenderBufferFromBytes
xdata	ENDS
;	COMDAT xdata
xdata	SEGMENT
$chain$2$CMakeRenderBufferFromBytes DQ 00013c40000020021r ; 2.74875e-308
	DD	imagerel $LN67@CMakeRende
	DD	imagerel $LN67@CMakeRende+344
	DD	imagerel $unwind$CMakeRenderBufferFromBytes
xdata	ENDS
;	COMDAT xdata
xdata	SEGMENT
$chain$0$CMakeRenderBufferFromBytes DQ 00013c40800020821r ; 2.74877e-308
	DD	imagerel $LN67@CMakeRende
	DD	imagerel $LN67@CMakeRende+344
	DD	imagerel $unwind$CMakeRenderBufferFromBytes
xdata	ENDS
;	COMDAT xdata
xdata	SEGMENT
$unwind$CMakeRenderBufferFromBytes DQ 0f009920d00060d01r ; -4.96234e+231
	DQ	030027003d005e007r		; 1.99037e-77
END
