; Listing generated by Microsoft (R) Optimizing Compiler Version 19.29.30148.0 

include listing.inc

INCLUDELIB OLDNAMES

PUBLIC	??_C@_09NMOEEFMG@CMakeMesh@			; `string'
PUBLIC	??_C@_0CO@JBHLAGNI@CMakeMesh?5failed?5because?5vertex@ ; `string'
PUBLIC	??_C@_0CN@DPMCPADO@CMakeMesh?5failed?5because?5indexC@ ; `string'
PUBLIC	??_C@_0DM@EDJKMFAH@CMakeMesh?5failed?5because?5indexC@ ; `string'
PUBLIC	??_C@_0DG@PLOFFAIF@CMakeMesh?5failed?5because?5vertPo@ ; `string'
PUBLIC	??_C@_0CK@MMNDFJHN@CMakeMesh?5failed?5because?5indexe@ ; `string'
PUBLIC	??_C@_0HH@PMFNOFOA@CMakeMesh?5failed?5because?5index?5@ ; `string'
PUBLIC	??_C@_0N@LKLFAECI@CDestroyMesh@			; `string'
PUBLIC	??_C@_0CM@MCABMJGF@CDestroyMesh?5failed?5because?5han@ ; `string'
PUBLIC	??_C@_0CP@NBCDBGLG@CDestroyMesh?5failed?5because?5han@ ; `string'
PUBLIC	??_C@_0BB@CONFLMDK@CMeshGetTriCount@		; `string'
PUBLIC	??_C@_0DD@JMLDBFEE@CMeshGetTriCount?5failed?5because@ ; `string'
PUBLIC	??_C@_0BC@MBKHEFIO@CMeshGetVertCount@		; `string'
PUBLIC	??_C@_0DE@PHNOCPBA@CMeshGetVertCount?5failed?5becaus@ ; `string'
EXTRN	__imp___stdio_common_vsprintf_s:PROC
;	COMDAT ??_C@_0DE@PHNOCPBA@CMeshGetVertCount?5failed?5becaus@
CONST	SEGMENT
??_C@_0DE@PHNOCPBA@CMeshGetVertCount?5failed?5becaus@ DB 'CMeshGetVertCou'
	DB	'nt failed because handle was invalid', 00H	; `string'
CONST	ENDS
;	COMDAT ??_C@_0BC@MBKHEFIO@CMeshGetVertCount@
CONST	SEGMENT
??_C@_0BC@MBKHEFIO@CMeshGetVertCount@ DB 'CMeshGetVertCount', 00H ; `string'
CONST	ENDS
;	COMDAT ??_C@_0DD@JMLDBFEE@CMeshGetTriCount?5failed?5because@
CONST	SEGMENT
??_C@_0DD@JMLDBFEE@CMeshGetTriCount?5failed?5because@ DB 'CMeshGetTriCoun'
	DB	't failed because handle was invalid', 00H	; `string'
CONST	ENDS
;	COMDAT ??_C@_0BB@CONFLMDK@CMeshGetTriCount@
CONST	SEGMENT
??_C@_0BB@CONFLMDK@CMeshGetTriCount@ DB 'CMeshGetTriCount', 00H ; `string'
CONST	ENDS
;	COMDAT ??_C@_0CP@NBCDBGLG@CDestroyMesh?5failed?5because?5han@
CONST	SEGMENT
??_C@_0CP@NBCDBGLG@CDestroyMesh?5failed?5because?5han@ DB 'CDestroyMesh f'
	DB	'ailed because handle was invalid', 00H	; `string'
CONST	ENDS
;	COMDAT ??_C@_0CM@MCABMJGF@CDestroyMesh?5failed?5because?5han@
CONST	SEGMENT
??_C@_0CM@MCABMJGF@CDestroyMesh?5failed?5because?5han@ DB 'CDestroyMesh f'
	DB	'ailed because handle was NULL', 00H		; `string'
CONST	ENDS
;	COMDAT ??_C@_0N@LKLFAECI@CDestroyMesh@
CONST	SEGMENT
??_C@_0N@LKLFAECI@CDestroyMesh@ DB 'CDestroyMesh', 00H	; `string'
CONST	ENDS
;	COMDAT ??_C@_0HH@PMFNOFOA@CMakeMesh?5failed?5because?5index?5@
CONST	SEGMENT
??_C@_0HH@PMFNOFOA@CMakeMesh?5failed?5because?5index?5@ DB 'CMakeMesh fai'
	DB	'led because index at %d references vertex value (%d) that doe'
	DB	's not exist.', 0aH, 'Valid vertex values are [0-%d].', 00H ; `string'
CONST	ENDS
;	COMDAT ??_C@_0CK@MMNDFJHN@CMakeMesh?5failed?5because?5indexe@
CONST	SEGMENT
??_C@_0CK@MMNDFJHN@CMakeMesh?5failed?5because?5indexe@ DB 'CMakeMesh fail'
	DB	'ed because indexes was NULL', 00H		; `string'
CONST	ENDS
;	COMDAT ??_C@_0DG@PLOFFAIF@CMakeMesh?5failed?5because?5vertPo@
CONST	SEGMENT
??_C@_0DG@PLOFFAIF@CMakeMesh?5failed?5because?5vertPo@ DB 'CMakeMesh fail'
	DB	'ed because vertPositionalArray was NULL', 00H ; `string'
CONST	ENDS
;	COMDAT ??_C@_0DM@EDJKMFAH@CMakeMesh?5failed?5because?5indexC@
CONST	SEGMENT
??_C@_0DM@EDJKMFAH@CMakeMesh?5failed?5because?5indexC@ DB 'CMakeMesh fail'
	DB	'ed because indexCount was not a multiple of 3', 00H ; `string'
CONST	ENDS
;	COMDAT ??_C@_0CN@DPMCPADO@CMakeMesh?5failed?5because?5indexC@
CONST	SEGMENT
??_C@_0CN@DPMCPADO@CMakeMesh?5failed?5because?5indexC@ DB 'CMakeMesh fail'
	DB	'ed because indexCount was <= 0', 00H	; `string'
CONST	ENDS
;	COMDAT ??_C@_0CO@JBHLAGNI@CMakeMesh?5failed?5because?5vertex@
CONST	SEGMENT
??_C@_0CO@JBHLAGNI@CMakeMesh?5failed?5because?5vertex@ DB 'CMakeMesh fail'
	DB	'ed because vertexCount was <= 0', 00H	; `string'
CONST	ENDS
;	COMDAT ??_C@_09NMOEEFMG@CMakeMesh@
CONST	SEGMENT
??_C@_09NMOEEFMG@CMakeMesh@ DB 'CMakeMesh', 00H		; `string'
PUBLIC	CMeshGetVertCount
PUBLIC	CMeshGetTriCount
PUBLIC	CDestroyMesh
PUBLIC	CMakeMesh
PUBLIC	sprintf_s
PUBLIC	_vsprintf_s_l
;	COMDAT pdata
pdata	SEGMENT
$pdata$CMeshGetVertCount DD imagerel $LN20@CMeshGetVe
	DD	imagerel $LN20@CMeshGetVe+291
	DD	imagerel $unwind$CMeshGetVertCount
pdata	ENDS
;	COMDAT pdata
pdata	SEGMENT
$pdata$CMeshGetTriCount DD imagerel $LN20@CMeshGetTr
	DD	imagerel $LN20@CMeshGetTr+292
	DD	imagerel $unwind$CMeshGetTriCount
pdata	ENDS
;	COMDAT pdata
pdata	SEGMENT
$pdata$CDestroyMesh DD imagerel $LN26@CDestroyMe
	DD	imagerel $LN26@CDestroyMe+445
	DD	imagerel $unwind$CDestroyMesh
pdata	ENDS
;	COMDAT pdata
pdata	SEGMENT
$pdata$CMakeMesh DD imagerel $LN63@CMakeMesh
	DD	imagerel $LN63@CMakeMesh+333
	DD	imagerel $unwind$CMakeMesh
pdata	ENDS
;	COMDAT pdata
pdata	SEGMENT
$pdata$0$CMakeMesh DD imagerel $LN63@CMakeMesh+333
	DD	imagerel $LN63@CMakeMesh+452
	DD	imagerel $chain$0$CMakeMesh
pdata	ENDS
;	COMDAT pdata
pdata	SEGMENT
$pdata$1$CMakeMesh DD imagerel $LN63@CMakeMesh+452
	DD	imagerel $LN63@CMakeMesh+635
	DD	imagerel $chain$1$CMakeMesh
pdata	ENDS
;	COMDAT pdata
pdata	SEGMENT
$pdata$2$CMakeMesh DD imagerel $LN63@CMakeMesh+635
	DD	imagerel $LN63@CMakeMesh+761
	DD	imagerel $chain$2$CMakeMesh
pdata	ENDS
;	COMDAT pdata
pdata	SEGMENT
$pdata$3$CMakeMesh DD imagerel $LN63@CMakeMesh+761
	DD	imagerel $LN63@CMakeMesh+792
	DD	imagerel $chain$3$CMakeMesh
pdata	ENDS
;	COMDAT pdata
pdata	SEGMENT
$pdata$sprintf_s DD imagerel $LN6@sprintf_s
	DD	imagerel $LN6@sprintf_s+88
	DD	imagerel $unwind$sprintf_s
pdata	ENDS
;	COMDAT pdata
pdata	SEGMENT
$pdata$_vsprintf_s_l DD imagerel $LN4@vsprintf_s
	DD	imagerel $LN4@vsprintf_s+92
	DD	imagerel $unwind$_vsprintf_s_l
;	COMDAT xdata
xdata	SEGMENT
$unwind$_vsprintf_s_l DQ 00009640f00060f01r	; 1.30596e-308
	DQ	0700b520f0008340fr		; 5.30195e+231
xdata	ENDS
;	COMDAT xdata
xdata	SEGMENT
$unwind$sprintf_s DQ 0700e621200051201r		; 5.89629e+231
	DQ	00000300b500c600dr		; 2.60991e-310
xdata	ENDS
;	COMDAT xdata
xdata	SEGMENT
$chain$3$CMakeMesh DD 021H
	DD	imagerel $LN63@CMakeMesh
	DD	imagerel $LN63@CMakeMesh+333
	DD	imagerel $unwind$CMakeMesh
xdata	ENDS
;	COMDAT xdata
xdata	SEGMENT
$chain$2$CMakeMesh DD 021H
	DD	imagerel $LN63@CMakeMesh+333
	DD	imagerel $LN63@CMakeMesh+452
	DD	imagerel $chain$0$CMakeMesh
xdata	ENDS
;	COMDAT xdata
xdata	SEGMENT
$chain$1$CMakeMesh DQ 0002ad40800020821r	; 7.46185e-308
	DD	imagerel $LN63@CMakeMesh+333
	DD	imagerel $LN63@CMakeMesh+452
	DD	imagerel $chain$0$CMakeMesh
xdata	ENDS
;	COMDAT xdata
xdata	SEGMENT
$chain$0$CMakeMesh DQ 0002bc40800020821r	; 7.7226e-308
	DD	imagerel $LN63@CMakeMesh
	DD	imagerel $LN63@CMakeMesh+333
	DD	imagerel $unwind$CMakeMesh
xdata	ENDS
;	COMDAT xdata
xdata	SEGMENT
$unwind$CMakeMesh DQ 0002c010f00072119r		; 7.78891e-308
	DQ	060037004e006f008r		; 3.25769e+154
	DD	03002H
	DD	imagerel __GSHandlerCheck
	DD	0140H
xdata	ENDS
;	COMDAT xdata
xdata	SEGMENT
$unwind$CDestroyMesh DQ 00006344500064501r	; 8.62797e-309
	DQ	07006320a0007640ar		; 4.30736e+231
xdata	ENDS
;	COMDAT xdata
xdata	SEGMENT
$unwind$CMeshGetTriCount DQ 00006340a00040a01r	; 8.62672e-309
	DD	07006320aH
xdata	ENDS
;	COMDAT xdata
xdata	SEGMENT
$unwind$CMeshGetVertCount DQ 00006340a00040a01r	; 8.62672e-309
	DD	07006320aH
END
