; Listing generated by Microsoft (R) Optimizing Compiler Version 19.29.30148.0 

include listing.inc

INCLUDELIB OLDNAMES

PUBLIC	??_C@_0BG@IIKKEFIC@CMakeVertexDataBuffer@	; `string'
PUBLIC	??_C@_0DD@NOLEMLOD@CMakeVertexDataBuffer?5failed?5be@ ; `string'
PUBLIC	??_C@_0DI@BMBPHDAB@CMakeVertexDataBuffer?5failed?5be@ ; `string'
PUBLIC	??_C@_0DN@OKMKOHCB@CMakeVertexDataBuffer?5failed?5be@ ; `string'
PUBLIC	??_C@_0ED@PPFOMGJP@CMakeVertexDataBuffer?5failed?5be@ ; `string'
PUBLIC	??_C@_0BJ@EHGHEGAD@CDestroyVertexDataBuffer@	; `string'
PUBLIC	??_C@_0ED@FMEONNNG@CDestroyVertexDataBuffer?5failed@ ; `string'
PUBLIC	??_C@_0EG@NOPGNNDF@CDestroyVertexDataBuffer?5failed@ ; `string'
PUBLIC	??_C@_0BM@LHMBODLJ@CVertexDataBufferGetElement@	; `string'
PUBLIC	??_C@_0EA@EHFCDKDO@CVertexDataBufferGetElement?5fai@ ; `string'
PUBLIC	??_C@_0DO@GMCHNLBM@CVertexDataBufferGetElement?5fai@ ; `string'
PUBLIC	??_C@_0EA@BIOCLIPO@CVertexDataBufferSetElement?5fai@ ; `string'
PUBLIC	??_C@_0DN@FDCMAMDA@CVertexDataBufferSetElement?5fai@ ; `string'
PUBLIC	??_C@_0DN@NCNEEOCP@CVertexDataBufferSetElement?5fai@ ; `string'
PUBLIC	??_C@_0CB@CFKBNCJD@CVertexDataBufferGetElementCoun@ ; `string'
PUBLIC	??_C@_0EF@NBHGEINM@CVertexDataBufferGetElementCoun@ ; `string'
PUBLIC	??_C@_0CD@KEMFMAGO@CVertexDataBufferGetComponentCo@ ; `string'
PUBLIC	??_C@_0EH@KKHJLFON@CVertexDataBufferGetComponentCo@ ; `string'
PUBLIC	??_C@_0BG@IGGEADDO@CMakeStaticDataBuffer@	; `string'
PUBLIC	??_C@_0DD@NKDGEJEA@CMakeStaticDataBuffer?5failed?5be@ ; `string'
PUBLIC	??_C@_0DF@GIPGPGNM@CMakeStaticDataBuffer?5failed?5be@ ; `string'
PUBLIC	??_C@_0BJ@EJKJAALP@CDestroyStaticDataBuffer@	; `string'
PUBLIC	??_C@_0ED@LPIAHPOE@CDestroyStaticDataBuffer?5failed@ ; `string'
PUBLIC	??_C@_0EG@BJPENNPE@CDestroyStaticDataBuffer?5failed@ ; `string'
PUBLIC	??_C@_0ED@LMOEJCNL@CDestroyStaticDataBuffer?5failed@ ; `string'
PUBLIC	??_C@_0BF@EFOJFIGE@CStaticDataBufferMap@	; `string'
PUBLIC	??_C@_0DJ@LBBNFDCP@CStaticDataBufferMap?5failed?5bec@ ; `string'
PUBLIC	??_C@_0BH@MNKNHCAI@CStaticDataBufferUnmap@	; `string'
PUBLIC	??_C@_0DL@NCNMFMIH@CStaticDataBufferUnmap?5failed?5b@ ; `string'
PUBLIC	??_C@_0BO@JJJNLHFJ@CStaticDataBufferGetSizeBytes@ ; `string'
PUBLIC	??_C@_0EC@JJMCHMPB@CStaticDataBufferGetSizeBytes?5f@ ; `string'
EXTRN	__imp_TryEnterCriticalSection:PROC
;	COMDAT ??_C@_0EC@JJMCHMPB@CStaticDataBufferGetSizeBytes?5f@
CONST	SEGMENT
??_C@_0EC@JJMCHMPB@CStaticDataBufferGetSizeBytes?5f@ DB 'CStaticDataBuffe'
	DB	'rGetSizeBytes failed because sdBuffer was invalid', 00H ; `string'
CONST	ENDS
;	COMDAT ??_C@_0BO@JJJNLHFJ@CStaticDataBufferGetSizeBytes@
CONST	SEGMENT
??_C@_0BO@JJJNLHFJ@CStaticDataBufferGetSizeBytes@ DB 'CStaticDataBufferGe'
	DB	'tSizeBytes', 00H				; `string'
CONST	ENDS
;	COMDAT ??_C@_0DL@NCNMFMIH@CStaticDataBufferUnmap?5failed?5b@
CONST	SEGMENT
??_C@_0DL@NCNMFMIH@CStaticDataBufferUnmap?5failed?5b@ DB 'CStaticDataBuff'
	DB	'erUnmap failed because sdBuffer was invalid', 00H ; `string'
CONST	ENDS
;	COMDAT ??_C@_0BH@MNKNHCAI@CStaticDataBufferUnmap@
CONST	SEGMENT
??_C@_0BH@MNKNHCAI@CStaticDataBufferUnmap@ DB 'CStaticDataBufferUnmap', 00H ; `string'
CONST	ENDS
;	COMDAT ??_C@_0DJ@LBBNFDCP@CStaticDataBufferMap?5failed?5bec@
CONST	SEGMENT
??_C@_0DJ@LBBNFDCP@CStaticDataBufferMap?5failed?5bec@ DB 'CStaticDataBuff'
	DB	'erMap failed because sdBuffer was invalid', 00H ; `string'
CONST	ENDS
;	COMDAT ??_C@_0BF@EFOJFIGE@CStaticDataBufferMap@
CONST	SEGMENT
??_C@_0BF@EFOJFIGE@CStaticDataBufferMap@ DB 'CStaticDataBufferMap', 00H ; `string'
CONST	ENDS
;	COMDAT ??_C@_0ED@LMOEJCNL@CDestroyStaticDataBuffer?5failed@
CONST	SEGMENT
??_C@_0ED@LMOEJCNL@CDestroyStaticDataBuffer?5failed@ DB 'CDestroyStaticDa'
	DB	'taBuffer failed because buffer is currently mapped', 00H ; `string'
CONST	ENDS
;	COMDAT ??_C@_0EG@BJPENNPE@CDestroyStaticDataBuffer?5failed@
CONST	SEGMENT
??_C@_0EG@BJPENNPE@CDestroyStaticDataBuffer?5failed@ DB 'CDestroyStaticDa'
	DB	'taBuffer failed because pStaticDataBuffer was invalid', 00H ; `string'
CONST	ENDS
;	COMDAT ??_C@_0ED@LPIAHPOE@CDestroyStaticDataBuffer?5failed@
CONST	SEGMENT
??_C@_0ED@LPIAHPOE@CDestroyStaticDataBuffer?5failed@ DB 'CDestroyStaticDa'
	DB	'taBuffer failed because pStaticDataBuffer was NULL', 00H ; `string'
CONST	ENDS
;	COMDAT ??_C@_0BJ@EJKJAALP@CDestroyStaticDataBuffer@
CONST	SEGMENT
??_C@_0BJ@EJKJAALP@CDestroyStaticDataBuffer@ DB 'CDestroyStaticDataBuffer'
	DB	00H						; `string'
CONST	ENDS
;	COMDAT ??_C@_0DF@GIPGPGNM@CMakeStaticDataBuffer?5failed?5be@
CONST	SEGMENT
??_C@_0DF@GIPGPGNM@CMakeStaticDataBuffer?5failed?5be@ DB 'CMakeStaticData'
	DB	'Buffer failed because sizeBytes was 0', 00H	; `string'
CONST	ENDS
;	COMDAT ??_C@_0DD@NKDGEJEA@CMakeStaticDataBuffer?5failed?5be@
CONST	SEGMENT
??_C@_0DD@NKDGEJEA@CMakeStaticDataBuffer?5failed?5be@ DB 'CMakeStaticData'
	DB	'Buffer failed because name was NULL', 00H	; `string'
CONST	ENDS
;	COMDAT ??_C@_0BG@IGGEADDO@CMakeStaticDataBuffer@
CONST	SEGMENT
??_C@_0BG@IGGEADDO@CMakeStaticDataBuffer@ DB 'CMakeStaticDataBuffer', 00H ; `string'
CONST	ENDS
;	COMDAT ??_C@_0EH@KKHJLFON@CVertexDataBufferGetComponentCo@
CONST	SEGMENT
??_C@_0EH@KKHJLFON@CVertexDataBufferGetComponentCo@ DB 'CVertexDataBuffer'
	DB	'GetComponentCount failed bevause vdBuffer was invalid', 00H ; `string'
CONST	ENDS
;	COMDAT ??_C@_0CD@KEMFMAGO@CVertexDataBufferGetComponentCo@
CONST	SEGMENT
??_C@_0CD@KEMFMAGO@CVertexDataBufferGetComponentCo@ DB 'CVertexDataBuffer'
	DB	'GetComponentCount', 00H			; `string'
CONST	ENDS
;	COMDAT ??_C@_0EF@NBHGEINM@CVertexDataBufferGetElementCoun@
CONST	SEGMENT
??_C@_0EF@NBHGEINM@CVertexDataBufferGetElementCoun@ DB 'CVertexDataBuffer'
	DB	'GetElementCount failed bevause vdBuffer was invalid', 00H ; `string'
CONST	ENDS
;	COMDAT ??_C@_0CB@CFKBNCJD@CVertexDataBufferGetElementCoun@
CONST	SEGMENT
??_C@_0CB@CFKBNCJD@CVertexDataBufferGetElementCoun@ DB 'CVertexDataBuffer'
	DB	'GetElementCount', 00H			; `string'
CONST	ENDS
;	COMDAT ??_C@_0DN@NCNEEOCP@CVertexDataBufferSetElement?5fai@
CONST	SEGMENT
??_C@_0DN@NCNEEOCP@CVertexDataBufferSetElement?5fai@ DB 'CVertexDataBuffe'
	DB	'rSetElement failed bevause index was invalid', 00H ; `string'
CONST	ENDS
;	COMDAT ??_C@_0DN@FDCMAMDA@CVertexDataBufferSetElement?5fai@
CONST	SEGMENT
??_C@_0DN@FDCMAMDA@CVertexDataBufferSetElement?5fai@ DB 'CVertexDataBuffe'
	DB	'rSetElement failed bevause inBuffer was NULL', 00H ; `string'
CONST	ENDS
;	COMDAT ??_C@_0EA@BIOCLIPO@CVertexDataBufferSetElement?5fai@
CONST	SEGMENT
??_C@_0EA@BIOCLIPO@CVertexDataBufferSetElement?5fai@ DB 'CVertexDataBuffe'
	DB	'rSetElement failed bevause vdBuffer was invalid', 00H ; `string'
CONST	ENDS
;	COMDAT ??_C@_0DO@GMCHNLBM@CVertexDataBufferGetElement?5fai@
CONST	SEGMENT
??_C@_0DO@GMCHNLBM@CVertexDataBufferGetElement?5fai@ DB 'CVertexDataBuffe'
	DB	'rGetElement failed bevause outBuffer was NULL', 00H ; `string'
CONST	ENDS
;	COMDAT ??_C@_0EA@EHFCDKDO@CVertexDataBufferGetElement?5fai@
CONST	SEGMENT
??_C@_0EA@EHFCDKDO@CVertexDataBufferGetElement?5fai@ DB 'CVertexDataBuffe'
	DB	'rGetElement failed bevause vdBuffer was invalid', 00H ; `string'
CONST	ENDS
;	COMDAT ??_C@_0BM@LHMBODLJ@CVertexDataBufferGetElement@
CONST	SEGMENT
??_C@_0BM@LHMBODLJ@CVertexDataBufferGetElement@ DB 'CVertexDataBufferGetE'
	DB	'lement', 00H				; `string'
CONST	ENDS
;	COMDAT ??_C@_0EG@NOPGNNDF@CDestroyVertexDataBuffer?5failed@
CONST	SEGMENT
??_C@_0EG@NOPGNNDF@CDestroyVertexDataBuffer?5failed@ DB 'CDestroyVertexDa'
	DB	'taBuffer failed because pVertexDataBuffer was invalid', 00H ; `string'
CONST	ENDS
;	COMDAT ??_C@_0ED@FMEONNNG@CDestroyVertexDataBuffer?5failed@
CONST	SEGMENT
??_C@_0ED@FMEONNNG@CDestroyVertexDataBuffer?5failed@ DB 'CDestroyVertexDa'
	DB	'taBuffer failed because pVertexDataBuffer was NULL', 00H ; `string'
CONST	ENDS
;	COMDAT ??_C@_0BJ@EHGHEGAD@CDestroyVertexDataBuffer@
CONST	SEGMENT
??_C@_0BJ@EHGHEGAD@CDestroyVertexDataBuffer@ DB 'CDestroyVertexDataBuffer'
	DB	00H						; `string'
CONST	ENDS
;	COMDAT ??_C@_0ED@PPFOMGJP@CMakeVertexDataBuffer?5failed?5be@
CONST	SEGMENT
??_C@_0ED@PPFOMGJP@CMakeVertexDataBuffer?5failed?5be@ DB 'CMakeVertexData'
	DB	'Buffer failed because elementComponents was too big', 00H ; `string'
CONST	ENDS
;	COMDAT ??_C@_0DN@OKMKOHCB@CMakeVertexDataBuffer?5failed?5be@
CONST	SEGMENT
??_C@_0DN@OKMKOHCB@CMakeVertexDataBuffer?5failed?5be@ DB 'CMakeVertexData'
	DB	'Buffer failed because elementComponents was 0', 00H ; `string'
CONST	ENDS
;	COMDAT ??_C@_0DI@BMBPHDAB@CMakeVertexDataBuffer?5failed?5be@
CONST	SEGMENT
??_C@_0DI@BMBPHDAB@CMakeVertexDataBuffer?5failed?5be@ DB 'CMakeVertexData'
	DB	'Buffer failed because elementCount was 0', 00H ; `string'
CONST	ENDS
;	COMDAT ??_C@_0DD@NOLEMLOD@CMakeVertexDataBuffer?5failed?5be@
CONST	SEGMENT
??_C@_0DD@NOLEMLOD@CMakeVertexDataBuffer?5failed?5be@ DB 'CMakeVertexData'
	DB	'Buffer failed because name was NULL', 00H	; `string'
CONST	ENDS
;	COMDAT ??_C@_0BG@IIKKEFIC@CMakeVertexDataBuffer@
CONST	SEGMENT
??_C@_0BG@IIKKEFIC@CMakeVertexDataBuffer@ DB 'CMakeVertexDataBuffer', 00H ; `string'
PUBLIC	CStaticDataBufferGetSizeBytes
PUBLIC	CStaticDataBufferUnmap
PUBLIC	CStaticDataBufferMap
PUBLIC	CDestroyStaticDataBuffer
PUBLIC	CMakeStaticDataBuffer
PUBLIC	CVertexDataBufferGetComponentCount
PUBLIC	CVertexDataBufferGetElementCount
PUBLIC	CVertexDataBufferSetElement
PUBLIC	CVertexDataBufferGetElement
PUBLIC	CDestroyVertexDataBuffer
PUBLIC	CMakeVertexDataBuffer
;	COMDAT pdata
pdata	SEGMENT
$pdata$CStaticDataBufferGetSizeBytes DD imagerel $LN20@CStaticDat
	DD	imagerel $LN20@CStaticDat+293
	DD	imagerel $unwind$CStaticDataBufferGetSizeBytes
pdata	ENDS
;	COMDAT pdata
pdata	SEGMENT
$pdata$CStaticDataBufferUnmap DD imagerel $LN23@CStaticDat
	DD	imagerel $LN23@CStaticDat+214
	DD	imagerel $unwind$CStaticDataBufferUnmap
pdata	ENDS
;	COMDAT pdata
pdata	SEGMENT
$pdata$CStaticDataBufferMap DD imagerel $LN20@CStaticDat
	DD	imagerel $LN20@CStaticDat+302
	DD	imagerel $unwind$CStaticDataBufferMap
pdata	ENDS
;	COMDAT pdata
pdata	SEGMENT
$pdata$CDestroyStaticDataBuffer DD imagerel $LN32@CDestroySt
	DD	imagerel $LN32@CDestroySt+570
	DD	imagerel $unwind$CDestroyStaticDataBuffer
pdata	ENDS
;	COMDAT pdata
pdata	SEGMENT
$pdata$CMakeStaticDataBuffer DD imagerel $LN28@CMakeStati
	DD	imagerel $LN28@CMakeStati+326
	DD	imagerel $unwind$CMakeStaticDataBuffer
pdata	ENDS
;	COMDAT pdata
pdata	SEGMENT
$pdata$2$CMakeStaticDataBuffer DD imagerel $LN28@CMakeStati+326
	DD	imagerel $LN28@CMakeStati+426
	DD	imagerel $chain$2$CMakeStaticDataBuffer
pdata	ENDS
;	COMDAT pdata
pdata	SEGMENT
$pdata$3$CMakeStaticDataBuffer DD imagerel $LN28@CMakeStati+426
	DD	imagerel $LN28@CMakeStati+455
	DD	imagerel $chain$3$CMakeStaticDataBuffer
pdata	ENDS
;	COMDAT pdata
pdata	SEGMENT
$pdata$4$CMakeStaticDataBuffer DD imagerel $LN28@CMakeStati+455
	DD	imagerel $LN28@CMakeStati+540
	DD	imagerel $chain$4$CMakeStaticDataBuffer
pdata	ENDS
;	COMDAT pdata
pdata	SEGMENT
$pdata$CVertexDataBufferGetComponentCount DD imagerel $LN20@CVertexDat
	DD	imagerel $LN20@CVertexDat+292
	DD	imagerel $unwind$CVertexDataBufferGetComponentCount
pdata	ENDS
;	COMDAT pdata
pdata	SEGMENT
$pdata$CVertexDataBufferGetElementCount DD imagerel $LN20@CVertexDat
	DD	imagerel $LN20@CVertexDat+292
	DD	imagerel $unwind$CVertexDataBufferGetElementCount
pdata	ENDS
;	COMDAT pdata
pdata	SEGMENT
$pdata$CVertexDataBufferSetElement DD imagerel $LN27@CVertexDat
	DD	imagerel $LN27@CVertexDat+328
	DD	imagerel $unwind$CVertexDataBufferSetElement
pdata	ENDS
;	COMDAT pdata
pdata	SEGMENT
$pdata$1$CVertexDataBufferSetElement DD imagerel $LN27@CVertexDat+328
	DD	imagerel $LN27@CVertexDat+380
	DD	imagerel $chain$1$CVertexDataBufferSetElement
pdata	ENDS
;	COMDAT pdata
pdata	SEGMENT
$pdata$2$CVertexDataBufferSetElement DD imagerel $LN27@CVertexDat+380
	DD	imagerel $LN27@CVertexDat+459
	DD	imagerel $chain$2$CVertexDataBufferSetElement
pdata	ENDS
;	COMDAT pdata
pdata	SEGMENT
$pdata$CVertexDataBufferGetElement DD imagerel $LN26@CVertexDat
	DD	imagerel $LN26@CVertexDat+438
	DD	imagerel $unwind$CVertexDataBufferGetElement
pdata	ENDS
;	COMDAT pdata
pdata	SEGMENT
$pdata$CDestroyVertexDataBuffer DD imagerel $LN26@CDestroyVe
	DD	imagerel $LN26@CDestroyVe+444
	DD	imagerel $unwind$CDestroyVertexDataBuffer
pdata	ENDS
;	COMDAT pdata
pdata	SEGMENT
$pdata$CMakeVertexDataBuffer DD imagerel $LN40@CMakeVerte
	DD	imagerel $LN40@CMakeVerte+537
	DD	imagerel $unwind$CMakeVertexDataBuffer
pdata	ENDS
;	COMDAT pdata
pdata	SEGMENT
$pdata$2$CMakeVertexDataBuffer DD imagerel $LN40@CMakeVerte+537
	DD	imagerel $LN40@CMakeVerte+675
	DD	imagerel $chain$2$CMakeVertexDataBuffer
pdata	ENDS
;	COMDAT pdata
pdata	SEGMENT
$pdata$3$CMakeVertexDataBuffer DD imagerel $LN40@CMakeVerte+675
	DD	imagerel $LN40@CMakeVerte+758
	DD	imagerel $chain$3$CMakeVertexDataBuffer
;	COMDAT xdata
xdata	SEGMENT
$chain$3$CMakeVertexDataBuffer DQ 0000cf40000020021r ; 1.80135e-308
	DD	imagerel $LN40@CMakeVerte
	DD	imagerel $LN40@CMakeVerte+537
	DD	imagerel $unwind$CMakeVertexDataBuffer
xdata	ENDS
;	COMDAT xdata
xdata	SEGMENT
$chain$2$CMakeVertexDataBuffer DQ 0000cf41400061421r ; 1.8014e-308
	DQ	0000a3405000b740fr		; 1.41893e-308
	DD	imagerel $LN40@CMakeVerte
	DD	imagerel $LN40@CMakeVerte+537
	DD	imagerel $unwind$CMakeVertexDataBuffer
xdata	ENDS
;	COMDAT xdata
xdata	SEGMENT
$unwind$CMakeVertexDataBuffer DQ 0e009320d00060d01r ; -4.22271e+154
	DQ	050026003c005d007r		; 2.65961e+77
xdata	ENDS
;	COMDAT xdata
xdata	SEGMENT
$unwind$CDestroyVertexDataBuffer DQ 00006344500064501r ; 8.62797e-309
	DQ	07006320a0007640ar		; 4.30736e+231
xdata	ENDS
;	COMDAT xdata
xdata	SEGMENT
$unwind$CVertexDataBufferGetElement DQ 00008641400081401r ; 1.1669e-308
	DQ	00006341400075414r		; 8.62693e-309
	DD	070103214H
xdata	ENDS
;	COMDAT xdata
xdata	SEGMENT
$chain$2$CVertexDataBufferSetElement DD 021H
	DD	imagerel $LN27@CVertexDat
	DD	imagerel $LN27@CVertexDat+328
	DD	imagerel $unwind$CVertexDataBufferSetElement
xdata	ENDS
;	COMDAT xdata
xdata	SEGMENT
$chain$1$CVertexDataBufferSetElement DQ 00004740d00040d21r ; 6.19311e-309
	DD	066405H
	DD	imagerel $LN27@CVertexDat
	DD	imagerel $LN27@CVertexDat+328
	DD	imagerel $unwind$CVertexDataBufferSetElement
xdata	ENDS
;	COMDAT xdata
xdata	SEGMENT
$unwind$CVertexDataBufferSetElement DQ 00000420400010401r ; 3.58617e-310
xdata	ENDS
;	COMDAT xdata
xdata	SEGMENT
$unwind$CVertexDataBufferGetElementCount DQ 00006340a00040a01r ; 8.62672e-309
	DD	07006320aH
xdata	ENDS
;	COMDAT xdata
xdata	SEGMENT
$unwind$CVertexDataBufferGetComponentCount DQ 00006340a00040a01r ; 8.62672e-309
	DD	07006320aH
xdata	ENDS
;	COMDAT xdata
xdata	SEGMENT
$chain$4$CMakeStaticDataBuffer DQ 0000ae40000020021r ; 1.51453e-308
	DD	imagerel $LN28@CMakeStati
	DD	imagerel $LN28@CMakeStati+326
	DD	imagerel $unwind$CMakeStaticDataBuffer
xdata	ENDS
;	COMDAT xdata
xdata	SEGMENT
$chain$3$CMakeStaticDataBuffer DQ 0000ae40000040021r ; 1.51453e-308
	DD	097400H
	DD	imagerel $LN28@CMakeStati
	DD	imagerel $LN28@CMakeStati+326
	DD	imagerel $unwind$CMakeStaticDataBuffer
xdata	ENDS
;	COMDAT xdata
xdata	SEGMENT
$chain$2$CMakeStaticDataBuffer DQ 0000ae41400061421r ; 1.51457e-308
	DQ	0000834050009740fr		; 1.1408e-308
	DD	imagerel $LN28@CMakeStati
	DD	imagerel $LN28@CMakeStati+326
	DD	imagerel $unwind$CMakeStaticDataBuffer
xdata	ENDS
;	COMDAT xdata
xdata	SEGMENT
$unwind$CMakeStaticDataBuffer DQ 0000b540e00060e01r ; 1.5754e-308
	DQ	06006c008f00a320er		; 3.81287e+154
xdata	ENDS
;	COMDAT xdata
xdata	SEGMENT
$unwind$CDestroyStaticDataBuffer DQ 00006344500064501r ; 8.62797e-309
	DQ	07006320a0007640ar		; 4.30736e+231
xdata	ENDS
;	COMDAT xdata
xdata	SEGMENT
$unwind$CStaticDataBufferMap DQ 00006340a00040a01r ; 8.62672e-309
	DD	07006320aH
xdata	ENDS
;	COMDAT xdata
xdata	SEGMENT
$unwind$CStaticDataBufferUnmap DQ 00006340a00040a01r ; 8.62672e-309
	DD	07006320aH
xdata	ENDS
;	COMDAT xdata
xdata	SEGMENT
$unwind$CStaticDataBufferGetSizeBytes DQ 00006340a00040a01r ; 8.62672e-309
	DD	07006320aH
END
