; Listing generated by Microsoft (R) Optimizing Compiler Version 19.29.30148.0 

include listing.inc

INCLUDELIB OLDNAMES

PUBLIC	??_C@_0DL@EJODFHCI@CVertexGetDrawInput?5failed?5beca@ ; `string'
PUBLIC	??_C@_0DG@LPPLIKDI@CVertexGetDrawInput?5failed?5beca@ ; `string'
PUBLIC	??_C@_0DL@NFPDKLCM@CVertexGetDrawInput?5failed?5beca@ ; `string'
PUBLIC	??_C@_0EH@PLLKMGMO@CVertexUnsafeGetDrawInputDirect@ ; `string'
PUBLIC	??_C@_0EH@GHKKDKMK@CVertexUnsafeGetDrawInputDirect@ ; `string'
PUBLIC	??_C@_0EE@NIKFNFEK@CVertexGetDrawInputSizeBytes?5fa@ ; `string'
PUBLIC	??_C@_0EE@EELFCJEO@CVertexGetDrawInputSizeBytes?5fa@ ; `string'
PUBLIC	??_C@_0EB@OCEBIFIN@CVertexGetClassVertexData?5faile@ ; `string'
PUBLIC	??_C@_0DM@HFCGHBBO@CVertexGetClassVertexData?5faile@ ; `string'
PUBLIC	??_C@_0DI@FNEMOFLD@CVertexGetClassVertexData?5faile@ ; `string'
PUBLIC	??_C@_0EP@OJLMEBF@CVertexGetClassVertexDataCompon@ ; `string'
PUBLIC	??_C@_0EG@DIIINMOE@CVertexGetClassVertexDataCompon@ ; `string'
PUBLIC	??_C@_0EB@FBPGMCFI@CVertexGetClassStaticData?5faile@ ; `string'
PUBLIC	??_C@_0DM@CMICMHJI@CVertexGetClassStaticData?5faile@ ; `string'
PUBLIC	??_C@_0DI@FPJNEKAN@CVertexGetClassStaticData?5faile@ ; `string'
PUBLIC	??_C@_0EK@JFAFJPJF@CVertexGetClassStaticDataSizeBy@ ; `string'
PUBLIC	??_C@_0EB@LHPMDFIN@CVertexGetClassStaticDataSizeBy@ ; `string'
PUBLIC	??_C@_0DO@BAFABHKC@CVertexSetVertexOutput?5failed?5b@ ; `string'
PUBLIC	??_C@_0DL@LDNBLGFI@CVertexSetVertexOutput?5failed?5b@ ; `string'
PUBLIC	??_C@_0DI@KMJKLGCN@CVertexSetVertexOutput?5failed?5b@ ; `string'
PUBLIC	??_C@_0DP@ECHLMNPK@CVertexSetVertexOutput?5failed?5b@ ; `string'
PUBLIC	??_C@_0FB@JCIPFDFM@CVertexSetVertexOutputFromClass@ ; `string'
PUBLIC	??_C@_0FB@LKPMGBLL@CVertexSetVertexOutputFromClass@ ; `string'
PUBLIC	??_C@_0EO@ODJLELKI@CVertexSetVertexOutputFromClass@ ; `string'
PUBLIC	??_C@_0FI@KMOIHFBE@CVertexSetVertexOutputFromClass@ ; `string'
;	COMDAT ??_C@_0FI@KMOIHFBE@CVertexSetVertexOutputFromClass@
CONST	SEGMENT
??_C@_0FI@KMOIHFBE@CVertexSetVertexOutputFromClass@ DB 'CVertexSetVertexO'
	DB	'utputFromClassVertexData failed because vertex data could not'
	DB	' be found', 00H				; `string'
CONST	ENDS
;	COMDAT ??_C@_0EO@ODJLELKI@CVertexSetVertexOutputFromClass@
CONST	SEGMENT
??_C@_0EO@ODJLELKI@CVertexSetVertexOutputFromClass@ DB 'CVertexSetVertexO'
	DB	'utputFromClassVertexData failed because outputID was invalid', 00H ; `string'
CONST	ENDS
;	COMDAT ??_C@_0FB@LKPMGBLL@CVertexSetVertexOutputFromClass@
CONST	SEGMENT
??_C@_0FB@LKPMGBLL@CVertexSetVertexOutputFromClass@ DB 'CVertexSetVertexO'
	DB	'utputFromClassVertexData failed because classVertID was inval'
	DB	'id', 00H					; `string'
CONST	ENDS
;	COMDAT ??_C@_0FB@JCIPFDFM@CVertexSetVertexOutputFromClass@
CONST	SEGMENT
??_C@_0FB@JCIPFDFM@CVertexSetVertexOutputFromClass@ DB 'CVertexSetVertexO'
	DB	'utputFromClassVertexData failed because vertContext was inval'
	DB	'id', 00H					; `string'
CONST	ENDS
;	COMDAT ??_C@_0DP@ECHLMNPK@CVertexSetVertexOutput?5failed?5b@
CONST	SEGMENT
??_C@_0DP@ECHLMNPK@CVertexSetVertexOutput?5failed?5b@ DB 'CVertexSetVerte'
	DB	'xOutput failed because components was too large', 00H ; `string'
CONST	ENDS
;	COMDAT ??_C@_0DI@KMJKLGCN@CVertexSetVertexOutput?5failed?5b@
CONST	SEGMENT
??_C@_0DI@KMJKLGCN@CVertexSetVertexOutput?5failed?5b@ DB 'CVertexSetVerte'
	DB	'xOutput failed because inBuffer was NULL', 00H ; `string'
CONST	ENDS
;	COMDAT ??_C@_0DL@LDNBLGFI@CVertexSetVertexOutput?5failed?5b@
CONST	SEGMENT
??_C@_0DL@LDNBLGFI@CVertexSetVertexOutput?5failed?5b@ DB 'CVertexSetVerte'
	DB	'xOutput failed because outputID was invalid', 00H ; `string'
CONST	ENDS
;	COMDAT ??_C@_0DO@BAFABHKC@CVertexSetVertexOutput?5failed?5b@
CONST	SEGMENT
??_C@_0DO@BAFABHKC@CVertexSetVertexOutput?5failed?5b@ DB 'CVertexSetVerte'
	DB	'xOutput failed because vertContext was invalid', 00H ; `string'
CONST	ENDS
;	COMDAT ??_C@_0EB@LHPMDFIN@CVertexGetClassStaticDataSizeBy@
CONST	SEGMENT
??_C@_0EB@LHPMDFIN@CVertexGetClassStaticDataSizeBy@ DB 'CVertexGetClassSt'
	DB	'aticDataSizeBytes failed because ID was invalid', 00H ; `string'
CONST	ENDS
;	COMDAT ??_C@_0EK@JFAFJPJF@CVertexGetClassStaticDataSizeBy@
CONST	SEGMENT
??_C@_0EK@JFAFJPJF@CVertexGetClassStaticDataSizeBy@ DB 'CVertexGetClassSt'
	DB	'aticDataSizeBytes failed because vertContext was invalid', 00H ; `string'
CONST	ENDS
;	COMDAT ??_C@_0DI@FPJNEKAN@CVertexGetClassStaticData?5faile@
CONST	SEGMENT
??_C@_0DI@FPJNEKAN@CVertexGetClassStaticData?5faile@ DB 'CVertexGetClassS'
	DB	'taticData failed because ID was invalid', 00H ; `string'
CONST	ENDS
;	COMDAT ??_C@_0DM@CMICMHJI@CVertexGetClassStaticData?5faile@
CONST	SEGMENT
??_C@_0DM@CMICMHJI@CVertexGetClassStaticData?5faile@ DB 'CVertexGetClassS'
	DB	'taticData failed because outBuffer was NULL', 00H ; `string'
CONST	ENDS
;	COMDAT ??_C@_0EB@FBPGMCFI@CVertexGetClassStaticData?5faile@
CONST	SEGMENT
??_C@_0EB@FBPGMCFI@CVertexGetClassStaticData?5faile@ DB 'CVertexGetClassS'
	DB	'taticData failed because vertContext was invalid', 00H ; `string'
CONST	ENDS
;	COMDAT ??_C@_0EG@DIIINMOE@CVertexGetClassVertexDataCompon@
CONST	SEGMENT
??_C@_0EG@DIIINMOE@CVertexGetClassVertexDataCompon@ DB 'CVertexGetClassVe'
	DB	'rtexDataComponentCount failed because ID was invalid', 00H ; `string'
CONST	ENDS
;	COMDAT ??_C@_0EP@OJLMEBF@CVertexGetClassVertexDataCompon@
CONST	SEGMENT
??_C@_0EP@OJLMEBF@CVertexGetClassVertexDataCompon@ DB 'CVertexGetClassVer'
	DB	'texDataComponentCount failed because vertContext was invalid', 00H ; `string'
CONST	ENDS
;	COMDAT ??_C@_0DI@FNEMOFLD@CVertexGetClassVertexData?5faile@
CONST	SEGMENT
??_C@_0DI@FNEMOFLD@CVertexGetClassVertexData?5faile@ DB 'CVertexGetClassV'
	DB	'ertexData failed because ID was invalid', 00H ; `string'
CONST	ENDS
;	COMDAT ??_C@_0DM@HFCGHBBO@CVertexGetClassVertexData?5faile@
CONST	SEGMENT
??_C@_0DM@HFCGHBBO@CVertexGetClassVertexData?5faile@ DB 'CVertexGetClassV'
	DB	'ertexData failed because outBuffer was NULL', 00H ; `string'
CONST	ENDS
;	COMDAT ??_C@_0EB@OCEBIFIN@CVertexGetClassVertexData?5faile@
CONST	SEGMENT
??_C@_0EB@OCEBIFIN@CVertexGetClassVertexData?5faile@ DB 'CVertexGetClassV'
	DB	'ertexData failed because vertContext was invalid', 00H ; `string'
CONST	ENDS
;	COMDAT ??_C@_0EE@EELFCJEO@CVertexGetDrawInputSizeBytes?5fa@
CONST	SEGMENT
??_C@_0EE@EELFCJEO@CVertexGetDrawInputSizeBytes?5fa@ DB 'CVertexGetDrawIn'
	DB	'putSizeBytes failed because drawInputID was invalid', 00H ; `string'
CONST	ENDS
;	COMDAT ??_C@_0EE@NIKFNFEK@CVertexGetDrawInputSizeBytes?5fa@
CONST	SEGMENT
??_C@_0EE@NIKFNFEK@CVertexGetDrawInputSizeBytes?5fa@ DB 'CVertexGetDrawIn'
	DB	'putSizeBytes failed because vertContext was invalid', 00H ; `string'
CONST	ENDS
;	COMDAT ??_C@_0EH@GHKKDKMK@CVertexUnsafeGetDrawInputDirect@
CONST	SEGMENT
??_C@_0EH@GHKKDKMK@CVertexUnsafeGetDrawInputDirect@ DB 'CVertexUnsafeGetD'
	DB	'rawInputDirect failed because drawInputID was invalid', 00H ; `string'
CONST	ENDS
;	COMDAT ??_C@_0EH@PLLKMGMO@CVertexUnsafeGetDrawInputDirect@
CONST	SEGMENT
??_C@_0EH@PLLKMGMO@CVertexUnsafeGetDrawInputDirect@ DB 'CVertexUnsafeGetD'
	DB	'rawInputDirect failed because vertContext was invalid', 00H ; `string'
CONST	ENDS
;	COMDAT ??_C@_0DL@NFPDKLCM@CVertexGetDrawInput?5failed?5beca@
CONST	SEGMENT
??_C@_0DL@NFPDKLCM@CVertexGetDrawInput?5failed?5beca@ DB 'CVertexGetDrawI'
	DB	'nput failed because drawInputID was invalid', 00H ; `string'
CONST	ENDS
;	COMDAT ??_C@_0DG@LPPLIKDI@CVertexGetDrawInput?5failed?5beca@
CONST	SEGMENT
??_C@_0DG@LPPLIKDI@CVertexGetDrawInput?5failed?5beca@ DB 'CVertexGetDrawI'
	DB	'nput failed because outBuffer was NULL', 00H ; `string'
CONST	ENDS
;	COMDAT ??_C@_0DL@EJODFHCI@CVertexGetDrawInput?5failed?5beca@
CONST	SEGMENT
??_C@_0DL@EJODFHCI@CVertexGetDrawInput?5failed?5beca@ DB 'CVertexGetDrawI'
	DB	'nput failed because vertContext was invalid', 00H ; `string'
PUBLIC	CVertexSetVertexOutputFromClassVertexData
PUBLIC	CVertexSetVertexOutput
PUBLIC	CVertexGetClassStaticDataSizeBytes
PUBLIC	CVertexGetClassStaticData
PUBLIC	CVertexGetClassVertexDataComponentCount
PUBLIC	CVertexGetClassVertexData
PUBLIC	CVertexGetDrawInputSizeBytes
PUBLIC	CVertexUnsafeGetDrawInputDirect
PUBLIC	CVertexGetDrawInput
;	COMDAT pdata
pdata	SEGMENT
$pdata$CVertexSetVertexOutputFromClassVertexData DD imagerel $LN25@CVertexSet
	DD	imagerel $LN25@CVertexSet+107
	DD	imagerel $unwind$CVertexSetVertexOutputFromClassVertexData
pdata	ENDS
;	COMDAT pdata
pdata	SEGMENT
$pdata$0$CVertexSetVertexOutputFromClassVertexData DD imagerel $LN25@CVertexSet+107
	DD	imagerel $LN25@CVertexSet+303
	DD	imagerel $chain$0$CVertexSetVertexOutputFromClassVertexData
pdata	ENDS
;	COMDAT pdata
pdata	SEGMENT
$pdata$1$CVertexSetVertexOutputFromClassVertexData DD imagerel $LN25@CVertexSet+303
	DD	imagerel $LN25@CVertexSet+324
	DD	imagerel $chain$1$CVertexSetVertexOutputFromClassVertexData
pdata	ENDS
;	COMDAT pdata
pdata	SEGMENT
$pdata$CVertexSetVertexOutput DD imagerel $LN8@CVertexSet
	DD	imagerel $LN8@CVertexSet+178
	DD	imagerel $unwind$CVertexSetVertexOutput
pdata	ENDS
;	COMDAT pdata
pdata	SEGMENT
$pdata$CVertexGetClassStaticDataSizeBytes DD imagerel $LN6@CVertexGet
	DD	imagerel $LN6@CVertexGet+70
	DD	imagerel $unwind$CVertexGetClassStaticDataSizeBytes
pdata	ENDS
;	COMDAT pdata
pdata	SEGMENT
$pdata$CVertexGetClassStaticData DD imagerel $LN8@CVertexGet
	DD	imagerel $LN8@CVertexGet+63
	DD	imagerel $unwind$CVertexGetClassStaticData
pdata	ENDS
;	COMDAT pdata
pdata	SEGMENT
$pdata$0$CVertexGetClassStaticData DD imagerel $LN8@CVertexGet+63
	DD	imagerel $LN8@CVertexGet+106
	DD	imagerel $chain$0$CVertexGetClassStaticData
pdata	ENDS
;	COMDAT pdata
pdata	SEGMENT
$pdata$3$CVertexGetClassStaticData DD imagerel $LN8@CVertexGet+106
	DD	imagerel $LN8@CVertexGet+157
	DD	imagerel $chain$3$CVertexGetClassStaticData
pdata	ENDS
;	COMDAT pdata
pdata	SEGMENT
$pdata$CVertexGetClassVertexDataComponentCount DD imagerel $LN6@CVertexGet
	DD	imagerel $LN6@CVertexGet+69
	DD	imagerel $unwind$CVertexGetClassVertexDataComponentCount
pdata	ENDS
;	COMDAT pdata
pdata	SEGMENT
$pdata$CVertexGetClassVertexData DD imagerel $LN7@CVertexGet
	DD	imagerel $LN7@CVertexGet+145
	DD	imagerel $unwind$CVertexGetClassVertexData
pdata	ENDS
;	COMDAT pdata
pdata	SEGMENT
$pdata$CVertexGetDrawInputSizeBytes DD imagerel $LN6@CVertexGet
	DD	imagerel $LN6@CVertexGet+73
	DD	imagerel $unwind$CVertexGetDrawInputSizeBytes
pdata	ENDS
;	COMDAT pdata
pdata	SEGMENT
$pdata$CVertexUnsafeGetDrawInputDirect DD imagerel $LN6@CVertexUns
	DD	imagerel $LN6@CVertexUns+75
	DD	imagerel $unwind$CVertexUnsafeGetDrawInputDirect
pdata	ENDS
;	COMDAT pdata
pdata	SEGMENT
$pdata$CVertexGetDrawInput DD imagerel $LN7@CVertexGet
	DD	imagerel $LN7@CVertexGet+132
	DD	imagerel $unwind$CVertexGetDrawInput
;	COMDAT xdata
xdata	SEGMENT
$unwind$CVertexGetDrawInput DQ 00004745c00055c01r ; 6.19478e-309
	DQ	00000420400066457r		; 3.58617e-310
xdata	ENDS
;	COMDAT xdata
xdata	SEGMENT
$unwind$CVertexUnsafeGetDrawInputDirect DQ 00000420400010401r ; 3.58617e-310
xdata	ENDS
;	COMDAT xdata
xdata	SEGMENT
$unwind$CVertexGetDrawInputSizeBytes DQ 00000420400010401r ; 3.58617e-310
xdata	ENDS
;	COMDAT xdata
xdata	SEGMENT
$unwind$CVertexGetClassVertexData DQ 00006340a00040a01r ; 8.62672e-309
	DD	07006320aH
xdata	ENDS
;	COMDAT xdata
xdata	SEGMENT
$unwind$CVertexGetClassVertexDataComponentCount DQ 00000420400010401r ; 3.58617e-310
xdata	ENDS
;	COMDAT xdata
xdata	SEGMENT
$chain$3$CVertexGetClassStaticData DQ 00007640800040821r ; 1.02781e-308
	DD	063400H
	DD	imagerel $LN8@CVertexGet
	DD	imagerel $LN8@CVertexGet+63
	DD	imagerel $unwind$CVertexGetClassStaticData
xdata	ENDS
;	COMDAT xdata
xdata	SEGMENT
$chain$0$CVertexGetClassStaticData DQ 00006340500020521r ; 8.62661e-309
	DD	imagerel $LN8@CVertexGet
	DD	imagerel $LN8@CVertexGet+63
	DD	imagerel $unwind$CVertexGetClassStaticData
xdata	ENDS
;	COMDAT xdata
xdata	SEGMENT
$unwind$CVertexGetClassStaticData DQ 07002320600020601r ; 3.53109e+231
xdata	ENDS
;	COMDAT xdata
xdata	SEGMENT
$unwind$CVertexGetClassStaticDataSizeBytes DQ 00000420400010401r ; 3.58617e-310
xdata	ENDS
;	COMDAT xdata
xdata	SEGMENT
$unwind$CVertexSetVertexOutput DQ 00006647f00047f01r ; 8.88995e-309
	DD	070023206H
xdata	ENDS
;	COMDAT xdata
xdata	SEGMENT
$chain$1$CVertexSetVertexOutputFromClassVertexData DD 021H
	DD	imagerel $LN25@CVertexSet
	DD	imagerel $LN25@CVertexSet+107
	DD	imagerel $unwind$CVertexSetVertexOutputFromClassVertexData
xdata	ENDS
;	COMDAT xdata
xdata	SEGMENT
$chain$0$CVertexSetVertexOutputFromClassVertexData DQ 00011640800020821r ; 2.41848e-308
	DD	imagerel $LN25@CVertexSet
	DD	imagerel $LN25@CVertexSet+107
	DD	imagerel $unwind$CVertexSetVertexOutputFromClassVertexData
xdata	ENDS
;	COMDAT xdata
xdata	SEGMENT
$unwind$CVertexSetVertexOutputFromClassVertexData DQ 07004920800041719r ; 3.992e+231
	DD	030025003H
	DD	imagerel __GSHandlerCheck
	DD	040H
END
