; Listing generated by Microsoft (R) Optimizing Compiler Version 19.29.30148.0 

include listing.inc

INCLUDELIB OLDNAMES

EXTRN	__imp_fabs:PROC
PUBLIC	CInternalPipelineRasterizeTri
;	COMDAT pdata
pdata	SEGMENT
$pdata$CInternalPipelineRasterizeTri DD imagerel $LN292@CInternalP
	DD	imagerel $LN292@CInternalP+1557
	DD	imagerel $unwind$CInternalPipelineRasterizeTri
pdata	ENDS
;	COMDAT pdata
pdata	SEGMENT
$pdata$8$CInternalPipelineRasterizeTri DD imagerel $LN292@CInternalP+1557
	DD	imagerel $LN292@CInternalP+2088
	DD	imagerel $chain$8$CInternalPipelineRasterizeTri
pdata	ENDS
;	COMDAT pdata
pdata	SEGMENT
$pdata$13$CInternalPipelineRasterizeTri DD imagerel $LN292@CInternalP+2088
	DD	imagerel $LN292@CInternalP+5358
	DD	imagerel $chain$13$CInternalPipelineRasterizeTri
pdata	ENDS
;	COMDAT pdata
pdata	SEGMENT
$pdata$14$CInternalPipelineRasterizeTri DD imagerel $LN292@CInternalP+5358
	DD	imagerel $LN292@CInternalP+5389
	DD	imagerel $chain$14$CInternalPipelineRasterizeTri
pdata	ENDS
;	COMDAT pdata
pdata	SEGMENT
$pdata$_drawFlatTopTri DD imagerel _drawFlatTopTri
	DD	imagerel _drawFlatTopTri+372
	DD	imagerel $unwind$_drawFlatTopTri
pdata	ENDS
;	COMDAT pdata
pdata	SEGMENT
$pdata$9$_drawFlatTopTri DD imagerel _drawFlatTopTri+372
	DD	imagerel _drawFlatTopTri+1888
	DD	imagerel $chain$9$_drawFlatTopTri
pdata	ENDS
;	COMDAT pdata
pdata	SEGMENT
$pdata$10$_drawFlatTopTri DD imagerel _drawFlatTopTri+1888
	DD	imagerel _drawFlatTopTri+1957
	DD	imagerel $chain$10$_drawFlatTopTri
pdata	ENDS
;	COMDAT pdata
pdata	SEGMENT
$pdata$_drawFlatBottomTri DD imagerel _drawFlatBottomTri
	DD	imagerel _drawFlatBottomTri+314
	DD	imagerel $unwind$_drawFlatBottomTri
pdata	ENDS
;	COMDAT pdata
pdata	SEGMENT
$pdata$0$_drawFlatBottomTri DD imagerel _drawFlatBottomTri+314
	DD	imagerel _drawFlatBottomTri+382
	DD	imagerel $chain$0$_drawFlatBottomTri
pdata	ENDS
;	COMDAT pdata
pdata	SEGMENT
$pdata$9$_drawFlatBottomTri DD imagerel _drawFlatBottomTri+382
	DD	imagerel _drawFlatBottomTri+1913
	DD	imagerel $chain$9$_drawFlatBottomTri
pdata	ENDS
;	COMDAT pdata
pdata	SEGMENT
$pdata$10$_drawFlatBottomTri DD imagerel _drawFlatBottomTri+1913
	DD	imagerel _drawFlatBottomTri+1922
	DD	imagerel $chain$10$_drawFlatBottomTri
pdata	ENDS
;	COMDAT pdata
pdata	SEGMENT
$pdata$11$_drawFlatBottomTri DD imagerel _drawFlatBottomTri+1922
	DD	imagerel _drawFlatBottomTri+1988
	DD	imagerel $chain$11$_drawFlatBottomTri
pdata	ENDS
;	COMDAT pdata
pdata	SEGMENT
$pdata$_prepareAndDrawFragment DD imagerel _prepareAndDrawFragment
	DD	imagerel _prepareAndDrawFragment+64
	DD	imagerel $unwind$_prepareAndDrawFragment
pdata	ENDS
;	COMDAT pdata
pdata	SEGMENT
$pdata$1$_prepareAndDrawFragment DD imagerel _prepareAndDrawFragment+64
	DD	imagerel _prepareAndDrawFragment+402
	DD	imagerel $chain$1$_prepareAndDrawFragment
pdata	ENDS
;	COMDAT pdata
pdata	SEGMENT
$pdata$7$_prepareAndDrawFragment DD imagerel _prepareAndDrawFragment+402
	DD	imagerel _prepareAndDrawFragment+1347
	DD	imagerel $chain$7$_prepareAndDrawFragment
pdata	ENDS
;	COMDAT pdata
pdata	SEGMENT
$pdata$2$_prepareAndDrawFragment DD imagerel _prepareAndDrawFragment+1347
	DD	imagerel _prepareAndDrawFragment+1404
	DD	imagerel $chain$2$_prepareAndDrawFragment
pdata	ENDS
;	COMDAT pdata
pdata	SEGMENT
$pdata$_prepareFragmentInputValues DD imagerel _prepareFragmentInputValues
	DD	imagerel _prepareFragmentInputValues+621
	DD	imagerel $unwind$_prepareFragmentInputValues
pdata	ENDS
;	COMDAT pdata
pdata	SEGMENT
$pdata$_generateBarycentricWeights DD imagerel _generateBarycentricWeights
	DD	imagerel _generateBarycentricWeights+315
	DD	imagerel $unwind$_generateBarycentricWeights
pdata	ENDS
;	COMDAT pdata
pdata	SEGMENT
$pdata$_sortTriByVerticality DD imagerel _sortTriByVerticality
	DD	imagerel _sortTriByVerticality+1458
	DD	imagerel $unwind$_sortTriByVerticality
pdata	ENDS
;	COMDAT pdata
pdata	SEGMENT
$pdata$_swapInputLists DD imagerel _swapInputLists
	DD	imagerel _swapInputLists+386
	DD	imagerel $unwind$_swapInputLists
pdata	ENDS
;	COMDAT pdata
pdata	SEGMENT
$pdata$_drawFragment DD imagerel _drawFragment
	DD	imagerel _drawFragment+341
	DD	imagerel $unwind$_drawFragment
;	COMDAT xdata
xdata	SEGMENT
$unwind$_drawFragment DQ 00010541200082119r	; 2.27074e-308
	DQ	0e00e9212000f3412r		; -5.12356e+154
	DD	0600b700cH
	DD	imagerel __GSHandlerCheck
	DD	048H
xdata	ENDS
;	COMDAT xdata
xdata	SEGMENT
$unwind$_swapInputLists DQ 00049010700020701r	; 2.78179e-307
xdata	ENDS
;	COMDAT xdata
xdata	SEGMENT
$unwind$_sortTriByVerticality DQ 00049010700020701r ; 2.78179e-307
xdata	ENDS
;	COMDAT xdata
xdata	SEGMENT
$unwind$_generateBarycentricWeights DQ 00003c83f00103f01r ; 5.25981e-309
	DQ	00005a8330004b839r		; 7.86707e-309
	DQ	0000788270006982dr		; 1.04743e-308
	DQ	00009681800087821r		; 1.30815e-308
	DD	015010aH
xdata	ENDS
;	COMDAT xdata
xdata	SEGMENT
$unwind$_prepareFragmentInputValues DQ 000009827000a2701r ; 8.26539e-310
	DQ	0000278160001881fr		; 3.43369e-309
	DQ	0300272060003680cr		; 1.99122e-77
xdata	ENDS
;	COMDAT xdata
xdata	SEGMENT
$chain$2$_prepareAndDrawFragment DD 021H
	DD	imagerel _prepareAndDrawFragment
	DD	imagerel _prepareAndDrawFragment+64
	DD	imagerel $unwind$_prepareAndDrawFragment
xdata	ENDS
;	COMDAT xdata
xdata	SEGMENT
$chain$7$_prepareAndDrawFragment DQ 0001cf419000a1921r ; 4.02648e-308
	DQ	000236411001d7415r		; 5.39327e-308
	DQ	00021340400225408r		; 4.78479e-308
	DD	imagerel _prepareAndDrawFragment+1347
	DD	imagerel _prepareAndDrawFragment+1404
	DD	imagerel $chain$2$_prepareAndDrawFragment
xdata	ENDS
;	COMDAT xdata
xdata	SEGMENT
$chain$1$_prepareAndDrawFragment DQ 00007c80f00040f21r ; 1.08215e-308
	DD	09a806H
	DD	imagerel _prepareAndDrawFragment
	DD	imagerel _prepareAndDrawFragment+64
	DD	imagerel $unwind$_prepareAndDrawFragment
xdata	ENDS
;	COMDAT xdata
xdata	SEGMENT
$unwind$_prepareAndDrawFragment DQ 00008b82a000d3919r ; 1.21258e-308
	DQ	0000b881e000a9824r		; 1.60368e-308
	DQ	0000d6812000c7818r		; 1.86441e-308
	DQ	00000e005001e010cr		; 1.21694e-309
	DD	imagerel __GSHandlerCheck
	DD	068H
xdata	ENDS
;	COMDAT xdata
xdata	SEGMENT
$chain$11$_drawFlatBottomTri DD 021H
	DD	imagerel _drawFlatBottomTri
	DD	imagerel _drawFlatBottomTri+314
	DD	imagerel $unwind$_drawFlatBottomTri
xdata	ENDS
;	COMDAT xdata
xdata	SEGMENT
$chain$10$_drawFlatBottomTri DD 021H
	DD	imagerel _drawFlatBottomTri+314
	DD	imagerel _drawFlatBottomTri+382
	DD	imagerel $chain$0$_drawFlatBottomTri
xdata	ENDS
;	COMDAT xdata
xdata	SEGMENT
$chain$9$_drawFlatBottomTri DQ 0000ed84b00124b21r ; 2.06444e-308
	DQ	00010b839000fc842r		; 2.32515e-308
	DQ	0002de428002cf430r		; 8.31378e-308
	DQ	0002f7418002ec420r		; 8.74829e-308
	DQ	00036340800306410r		; 1.2351e-307
	DD	imagerel _drawFlatBottomTri+314
	DD	imagerel _drawFlatBottomTri+382
	DD	imagerel $chain$0$_drawFlatBottomTri
xdata	ENDS
;	COMDAT xdata
xdata	SEGMENT
$chain$0$_drawFlatBottomTri DQ 0000cf80900020921r ; 1.80355e-308
	DD	imagerel _drawFlatBottomTri
	DD	imagerel _drawFlatBottomTri+314
	DD	imagerel $unwind$_drawFlatBottomTri
xdata	ENDS
;	COMDAT xdata
xdata	SEGMENT
$unwind$_drawFlatBottomTri DQ 0000de83800104619r ; 1.93402e-308
	DQ	0001298280011a830r		; 2.58586e-308
	DQ	00014781e00138823r		; 2.84659e-308
	DQ	00031011400156819r		; 9.45891e-308
	DD	05004d006H
	DD	imagerel __GSHandlerCheck
	DD	0b8H
xdata	ENDS
;	COMDAT xdata
xdata	SEGMENT
$chain$10$_drawFlatTopTri DD 021H
	DD	imagerel _drawFlatTopTri
	DD	imagerel _drawFlatTopTri+372
	DD	imagerel $unwind$_drawFlatTopTri
xdata	ENDS
;	COMDAT xdata
xdata	SEGMENT
$chain$9$_drawFlatTopTri DQ 0000ed85400145421r	; 2.06446e-308
	DQ	00010b842000fc84br		; 2.32517e-308
	DQ	0002cf4300011a839r		; 8.05306e-308
	DQ	0002ec420002de428r		; 8.55711e-308
	DQ	000306410002f7418r		; 9.11772e-308
	DD	0363408H
	DD	imagerel _drawFlatTopTri
	DD	imagerel _drawFlatTopTri+372
	DD	imagerel $unwind$_drawFlatTopTri
xdata	ENDS
;	COMDAT xdata
xdata	SEGMENT
$unwind$_drawFlatTopTri DQ 0000cf83800104619r	; 1.80365e-308
	DQ	000129828000de830r		; 2.58586e-308
	DQ	00014781e00138823r		; 2.84659e-308
	DQ	00031011400156819r		; 9.45891e-308
	DD	05004d006H
	DD	imagerel __GSHandlerCheck
	DD	0b8H
xdata	ENDS
;	COMDAT xdata
xdata	SEGMENT
$chain$14$CInternalPipelineRasterizeTri DD 021H
	DD	imagerel $LN292@CInternalP
	DD	imagerel $LN292@CInternalP+1557
	DD	imagerel $unwind$CInternalPipelineRasterizeTri
xdata	ENDS
;	COMDAT xdata
xdata	SEGMENT
$chain$13$CInternalPipelineRasterizeTri DQ 000f0d84f000a4f21r ; 3.83808e-304
	DQ	001f1e42901f0f43ar		; 2.67156e-299
	DQ	001fa340801f2c410r		; 3.91273e-299
	DD	imagerel $LN292@CInternalP+1557
	DD	imagerel $LN292@CInternalP+2088
	DD	imagerel $chain$8$CInternalPipelineRasterizeTri
xdata	ENDS
;	COMDAT xdata
xdata	SEGMENT
$chain$8$CInternalPipelineRasterizeTri DQ 000eef8b10012b121r ; 3.52838e-304
	DQ	000f1c85400efe87er		; 4.05171e-304
	DQ	000f3a83a00f2b843r		; 4.47883e-304
	DQ	000f5882800f49831r		; 4.90598e-304
	DQ	000f7680900f6781fr		; 5.33309e-304
	DD	imagerel $LN292@CInternalP
	DD	imagerel $LN292@CInternalP+1557
	DD	imagerel $unwind$CInternalPipelineRasterizeTri
xdata	ENDS
;	COMDAT xdata
xdata	SEGMENT
$unwind$CInternalPipelineRasterizeTri DQ 001f3011500062619r ; 2.83775e-299
	DQ	0500260037004d006r		; 2.65961e+77
	DD	imagerel __GSHandlerCheck
	DD	0ed0H
END
